target datalayout = "e-m:e-p270:32:32-p271:32:32-p272:64:64-i64:64-i128:128-f80:128-n8:16:32:64-S128"
target triple = "x86_64-pc-linux-gnu"

%struct.ossl_ml_kem_scalar_st = type { [256 x i16] }

; Function Attrs: nounwind uwtable
define internal i32 @cbd_3(ptr noundef %0, ptr noundef %1, ptr noundef %2, ptr noundef %3) #0 {
  %5 = alloca i32, align 4
  %6 = alloca ptr, align 8
  %7 = alloca ptr, align 8
  %8 = alloca ptr, align 8
  %9 = alloca ptr, align 8
  %10 = alloca ptr, align 8
  %11 = alloca ptr, align 8
  %12 = alloca [192 x i8], align 16
  %13 = alloca ptr, align 8
  %14 = alloca i8, align 1
  %15 = alloca i8, align 1
  %16 = alloca i8, align 1
  %17 = alloca i16, align 2
  %18 = alloca i16, align 2
  %19 = alloca i32, align 4
  store ptr %0, ptr %6, align 8, !tbaa !40
  store ptr %1, ptr %7, align 8, !tbaa !25
  store ptr %2, ptr %8, align 8, !tbaa !44
  store ptr %3, ptr %9, align 8, !tbaa !3
  call void @llvm.lifetime.start.p0(i64 8, ptr %10) #8
  %20 = load ptr, ptr %6, align 8, !tbaa !40
  %21 = getelementptr inbounds nuw %struct.ossl_ml_kem_scalar_st, ptr %20, i32 0, i32 0
  %22 = getelementptr inbounds [256 x i16], ptr %21, i64 0, i64 0
  store ptr %22, ptr %10, align 8, !tbaa !53
  call void @llvm.lifetime.start.p0(i64 8, ptr %11) #8
  %23 = load ptr, ptr %10, align 8, !tbaa !53
  %24 = getelementptr inbounds i16, ptr %23, i64 256
  store ptr %24, ptr %11, align 8, !tbaa !53
  call void @llvm.lifetime.start.p0(i64 192, ptr %12) #8
  call void @llvm.lifetime.start.p0(i64 8, ptr %13) #8
  %25 = getelementptr inbounds [192 x i8], ptr %12, i64 0, i64 0
  store ptr %25, ptr %13, align 8, !tbaa !25
  call void @llvm.lifetime.start.p0(i64 1, ptr %14) #8
  call void @llvm.lifetime.start.p0(i64 1, ptr %15) #8
  call void @llvm.lifetime.start.p0(i64 1, ptr %16) #8
  call void @llvm.lifetime.start.p0(i64 2, ptr %17) #8
  call void @llvm.lifetime.start.p0(i64 2, ptr %18) #8
  %26 = getelementptr inbounds [192 x i8], ptr %12, i64 0, i64 0
  %27 = load ptr, ptr %7, align 8, !tbaa !25
  %28 = load ptr, ptr %8, align 8, !tbaa !44
  %29 = load ptr, ptr %9, align 8, !tbaa !3
  %30 = call i32 @prf(ptr noundef %26, i64 noundef 192, ptr noundef %27, ptr noundef %28, ptr noundef %29)
  %31 = icmp ne i32 %30, 0
  br i1 %31, label %33, label %32

32:                                               ; preds = %4
  store i32 0, ptr %5, align 4
  store i32 1, ptr %19, align 4
  br label %234

33:                                               ; preds = %4
  br label %34

34:                                               ; preds = %229, %33
  %35 = load ptr, ptr %13, align 8, !tbaa !25
  %36 = getelementptr inbounds nuw i8, ptr %35, i32 1
  store ptr %36, ptr %13, align 8, !tbaa !25
  %37 = load i8, ptr %35, align 1, !tbaa !48
  store i8 %37, ptr %14, align 1, !tbaa !48
  %38 = load ptr, ptr %13, align 8, !tbaa !25
  %39 = getelementptr inbounds nuw i8, ptr %38, i32 1
  store ptr %39, ptr %13, align 8, !tbaa !25
  %40 = load i8, ptr %38, align 1, !tbaa !48
  store i8 %40, ptr %15, align 1, !tbaa !48
  %41 = load ptr, ptr %13, align 8, !tbaa !25
  %42 = getelementptr inbounds nuw i8, ptr %41, i32 1
  store ptr %42, ptr %13, align 8, !tbaa !25
  %43 = load i8, ptr %41, align 1, !tbaa !48
  store i8 %43, ptr %16, align 1, !tbaa !48
  %44 = load i8, ptr %14, align 1, !tbaa !48
  %45 = zext i8 %44 to i32
  %46 = and i32 %45, 1
  %47 = load i8, ptr %14, align 1, !tbaa !48
  %48 = zext i8 %47 to i32
  %49 = ashr i32 %48, 1
  %50 = and i32 %49, 1
  %51 = add nsw i32 %46, %50
  %52 = load i8, ptr %14, align 1, !tbaa !48
  %53 = zext i8 %52 to i32
  %54 = ashr i32 %53, 2
  %55 = and i32 %54, 1
  %56 = add nsw i32 %51, %55
  %57 = trunc i32 %56 to i16
  store i16 %57, ptr %17, align 2, !tbaa !55
  %58 = load i8, ptr %14, align 1, !tbaa !48
  %59 = zext i8 %58 to i32
  %60 = ashr i32 %59, 3
  %61 = and i32 %60, 1
  %62 = load i8, ptr %14, align 1, !tbaa !48
  %63 = zext i8 %62 to i32
  %64 = ashr i32 %63, 4
  %65 = and i32 %64, 1
  %66 = add nsw i32 %61, %65
  %67 = load i8, ptr %14, align 1, !tbaa !48
  %68 = zext i8 %67 to i32
  %69 = ashr i32 %68, 5
  %70 = and i32 %69, 1
  %71 = add nsw i32 %66, %70
  %72 = load i16, ptr %17, align 2, !tbaa !55
  %73 = zext i16 %72 to i32
  %74 = sub nsw i32 %73, %71
  %75 = trunc i32 %74 to i16
  store i16 %75, ptr %17, align 2, !tbaa !55
  %76 = load i16, ptr %17, align 2, !tbaa !55
  %77 = zext i16 %76 to i32
  %78 = ashr i32 %77, 15
  %79 = sub i32 0, %78
  %80 = trunc i32 %79 to i16
  store i16 %80, ptr %18, align 2, !tbaa !55
  %81 = load i16, ptr %17, align 2, !tbaa !55
  %82 = zext i16 %81 to i32
  %83 = load i16, ptr %18, align 2, !tbaa !55
  %84 = zext i16 %83 to i32
  %85 = and i32 3329, %84
  %86 = add nsw i32 %82, %85
  %87 = trunc i32 %86 to i16
  %88 = load ptr, ptr %10, align 8, !tbaa !53
  %89 = getelementptr inbounds nuw i16, ptr %88, i32 1
  store ptr %89, ptr %10, align 8, !tbaa !53
  store i16 %87, ptr %88, align 2, !tbaa !55
  %90 = load i8, ptr %14, align 1, !tbaa !48
  %91 = zext i8 %90 to i32
  %92 = ashr i32 %91, 6
  %93 = and i32 %92, 1
  %94 = load i8, ptr %14, align 1, !tbaa !48
  %95 = zext i8 %94 to i32
  %96 = ashr i32 %95, 7
  %97 = and i32 %96, 1
  %98 = add nsw i32 %93, %97
  %99 = load i8, ptr %15, align 1, !tbaa !48
  %100 = zext i8 %99 to i32
  %101 = and i32 %100, 1
  %102 = add nsw i32 %98, %101
  %103 = trunc i32 %102 to i16
  store i16 %103, ptr %17, align 2, !tbaa !55
  %104 = load i8, ptr %15, align 1, !tbaa !48
  %105 = zext i8 %104 to i32
  %106 = ashr i32 %105, 1
  %107 = and i32 %106, 1
  %108 = load i8, ptr %15, align 1, !tbaa !48
  %109 = zext i8 %108 to i32
  %110 = ashr i32 %109, 2
  %111 = and i32 %110, 1
  %112 = add nsw i32 %107, %111
  %113 = load i8, ptr %15, align 1, !tbaa !48
  %114 = zext i8 %113 to i32
  %115 = ashr i32 %114, 3
  %116 = and i32 %115, 1
  %117 = add nsw i32 %112, %116
  %118 = load i16, ptr %17, align 2, !tbaa !55
  %119 = zext i16 %118 to i32
  %120 = sub nsw i32 %119, %117
  %121 = trunc i32 %120 to i16
  store i16 %121, ptr %17, align 2, !tbaa !55
  %122 = load i16, ptr %17, align 2, !tbaa !55
  %123 = zext i16 %122 to i32
  %124 = ashr i32 %123, 15
  %125 = sub i32 0, %124
  %126 = trunc i32 %125 to i16
  store i16 %126, ptr %18, align 2, !tbaa !55
  %127 = load i16, ptr %17, align 2, !tbaa !55
  %128 = zext i16 %127 to i32
  %129 = load i16, ptr %18, align 2, !tbaa !55
  %130 = zext i16 %129 to i32
  %131 = and i32 3329, %130
  %132 = add nsw i32 %128, %131
  %133 = trunc i32 %132 to i16
  %134 = load ptr, ptr %10, align 8, !tbaa !53
  %135 = getelementptr inbounds nuw i16, ptr %134, i32 1
  store ptr %135, ptr %10, align 8, !tbaa !53
  store i16 %133, ptr %134, align 2, !tbaa !55
  %136 = load i8, ptr %15, align 1, !tbaa !48
  %137 = zext i8 %136 to i32
  %138 = ashr i32 %137, 4
  %139 = and i32 %138, 1
  %140 = load i8, ptr %15, align 1, !tbaa !48
  %141 = zext i8 %140 to i32
  %142 = ashr i32 %141, 5
  %143 = and i32 %142, 1
  %144 = add nsw i32 %139, %143
  %145 = load i8, ptr %15, align 1, !tbaa !48
  %146 = zext i8 %145 to i32
  %147 = ashr i32 %146, 6
  %148 = and i32 %147, 1
  %149 = add nsw i32 %144, %148
  %150 = trunc i32 %149 to i16
  store i16 %150, ptr %17, align 2, !tbaa !55
  %151 = load i8, ptr %15, align 1, !tbaa !48
  %152 = zext i8 %151 to i32
  %153 = ashr i32 %152, 7
  %154 = and i32 %153, 1
  %155 = load i8, ptr %16, align 1, !tbaa !48
  %156 = zext i8 %155 to i32
  %157 = and i32 %156, 1
  %158 = add nsw i32 %154, %157
  %159 = load i8, ptr %16, align 1, !tbaa !48
  %160 = zext i8 %159 to i32
  %161 = ashr i32 %160, 1
  %162 = and i32 %161, 1
  %163 = add nsw i32 %158, %162
  %164 = load i16, ptr %17, align 2, !tbaa !55
  %165 = zext i16 %164 to i32
  %166 = sub nsw i32 %165, %163
  %167 = trunc i32 %166 to i16
  store i16 %167, ptr %17, align 2, !tbaa !55
  %168 = load i16, ptr %17, align 2, !tbaa !55
  %169 = zext i16 %168 to i32
  %170 = ashr i32 %169, 15
  %171 = sub i32 0, %170
  %172 = trunc i32 %171 to i16
  store i16 %172, ptr %18, align 2, !tbaa !55
  %173 = load i16, ptr %17, align 2, !tbaa !55
  %174 = zext i16 %173 to i32
  %175 = load i16, ptr %18, align 2, !tbaa !55
  %176 = zext i16 %175 to i32
  %177 = and i32 3329, %176
  %178 = add nsw i32 %174, %177
  %179 = trunc i32 %178 to i16
  %180 = load ptr, ptr %10, align 8, !tbaa !53
  %181 = getelementptr inbounds nuw i16, ptr %180, i32 1
  store ptr %181, ptr %10, align 8, !tbaa !53
  store i16 %179, ptr %180, align 2, !tbaa !55
  %182 = load i8, ptr %16, align 1, !tbaa !48
  %183 = zext i8 %182 to i32
  %184 = ashr i32 %183, 2
  %185 = and i32 %184, 1
  %186 = load i8, ptr %16, align 1, !tbaa !48
  %187 = zext i8 %186 to i32
  %188 = ashr i32 %187, 3
  %189 = and i32 %188, 1
  %190 = add nsw i32 %185, %189
  %191 = load i8, ptr %16, align 1, !tbaa !48
  %192 = zext i8 %191 to i32
  %193 = ashr i32 %192, 4
  %194 = and i32 %193, 1
  %195 = add nsw i32 %190, %194
  %196 = trunc i32 %195 to i16
  store i16 %196, ptr %17, align 2, !tbaa !55
  %197 = load i8, ptr %16, align 1, !tbaa !48
  %198 = zext i8 %197 to i32
  %199 = ashr i32 %198, 5
  %200 = and i32 %199, 1
  %201 = load i8, ptr %16, align 1, !tbaa !48
  %202 = zext i8 %201 to i32
  %203 = ashr i32 %202, 6
  %204 = and i32 %203, 1
  %205 = add nsw i32 %200, %204
  %206 = load i8, ptr %16, align 1, !tbaa !48
  %207 = zext i8 %206 to i32
  %208 = ashr i32 %207, 7
  %209 = and i32 %208, 1
  %210 = add nsw i32 %205, %209
  %211 = load i16, ptr %17, align 2, !tbaa !55
  %212 = zext i16 %211 to i32
  %213 = sub nsw i32 %212, %210
  %214 = trunc i32 %213 to i16
  store i16 %214, ptr %17, align 2, !tbaa !55
  %215 = load i16, ptr %17, align 2, !tbaa !55
  %216 = zext i16 %215 to i32
  %217 = ashr i32 %216, 15
  %218 = sub i32 0, %217
  %219 = trunc i32 %218 to i16
  store i16 %219, ptr %18, align 2, !tbaa !55
  %220 = load i16, ptr %17, align 2, !tbaa !55
  %221 = zext i16 %220 to i32
  %222 = load i16, ptr %18, align 2, !tbaa !55
  %223 = zext i16 %222 to i32
  %224 = and i32 3329, %223
  %225 = add nsw i32 %221, %224
  %226 = trunc i32 %225 to i16
  %227 = load ptr, ptr %10, align 8, !tbaa !53
  %228 = getelementptr inbounds nuw i16, ptr %227, i32 1
  store ptr %228, ptr %10, align 8, !tbaa !53
  store i16 %226, ptr %227, align 2, !tbaa !55
  br label %229

229:                                              ; preds = %34
  %230 = load ptr, ptr %10, align 8, !tbaa !53
  %231 = load ptr, ptr %11, align 8, !tbaa !53
  %232 = icmp ult ptr %230, %231
  br i1 %232, label %34, label %233, !llvm.loop !64

233:                                              ; preds = %229
  store i32 1, ptr %5, align 4
  store i32 1, ptr %19, align 4
  br label %234

234:                                              ; preds = %233, %32
  call void @llvm.lifetime.end.p0(i64 2, ptr %18) #8
  call void @llvm.lifetime.end.p0(i64 2, ptr %17) #8
  call void @llvm.lifetime.end.p0(i64 1, ptr %16) #8
  call void @llvm.lifetime.end.p0(i64 1, ptr %15) #8
  call void @llvm.lifetime.end.p0(i64 1, ptr %14) #8
  call void @llvm.lifetime.end.p0(i64 8, ptr %13) #8
  call void @llvm.lifetime.end.p0(i64 192, ptr %12) #8
  call void @llvm.lifetime.end.p0(i64 8, ptr %11) #8
  call void @llvm.lifetime.end.p0(i64 8, ptr %10) #8
  %235 = load i32, ptr %5, align 4
  ret i32 %235
}