; Function Attrs: nounwind uwtable
define internal range(i32 0, 2) i32 @cbd_3(ptr noundef writeonly captures(none) %0, ptr noundef %1, ptr noundef %2, ptr noundef readonly captures(none) %3) unnamed_addr #0 {
  %5 = alloca [192 x i8], align 16
  call void @llvm.lifetime.start.p0(i64 192, ptr nonnull %5) #13
  %6 = getelementptr i8, ptr %3, i64 24
  %.val = load ptr, ptr %6, align 8, !tbaa !22
  %7 = call fastcc i32 @prf(ptr noundef %5, i64 noundef 192, ptr noundef %1, ptr noundef %2, ptr %.val)
  %.not = icmp eq i32 %7, 0
  br i1 %.not, label %.loopexit, label %.preheader

.preheader:                                       ; preds = %4, %.preheader
  %.055 = phi ptr [ %12, %.preheader ], [ %5, %4 ]
  %.054.idx = phi i64 [ %.054.add, %.preheader ], [ 0, %4 ]
  %.054.ptr = getelementptr inbounds nuw i8, ptr %0, i64 %.054.idx
  %8 = getelementptr inbounds nuw i8, ptr %.055, i64 1
  %9 = load i8, ptr %.055, align 1, !tbaa !41
  %10 = getelementptr inbounds nuw i8, ptr %.055, i64 2
  %11 = load i8, ptr %8, align 1, !tbaa !41
  %12 = getelementptr inbounds nuw i8, ptr %.055, i64 3
  %13 = load i8, ptr %10, align 1, !tbaa !41
  %14 = zext i8 %9 to i32
  %15 = and i32 %14, 1
  %16 = lshr i32 %14, 1
  %17 = and i32 %16, 1
  %18 = lshr i32 %14, 2
  %19 = and i32 %18, 1
  %20 = shl i32 %14, 28
  %21 = ashr i32 %20, 31
  %22 = shl i32 %14, 27
  %23 = ashr i32 %22, 31
  %24 = shl i32 %14, 26
  %25 = ashr i32 %24, 31
  %26 = add nsw i32 %23, %15
  %27 = add nsw i32 %26, %21
  %.neg = add nsw i32 %27, %25
  %.neg56 = add nsw i32 %.neg, %17
  %28 = add nsw i32 %.neg56, %19
  %isneg = icmp slt i32 %28, 0
  %29 = select i1 %isneg, i32 3329, i32 0
  %30 = add nsw i32 %29, %28
  %31 = trunc nsw i32 %30 to i16
  %32 = getelementptr inbounds nuw i8, ptr %.054.ptr, i64 2
  store i16 %31, ptr %.054.ptr, align 2, !tbaa !36
  %33 = lshr i32 %14, 6
  %34 = and i32 %33, 1
  %35 = lshr i32 %14, 7
  %36 = zext i8 %11 to i32
  %37 = and i32 %36, 1
  %38 = shl i32 %36, 30
  %39 = ashr i32 %38, 31
  %40 = shl i32 %36, 29
  %41 = ashr i32 %40, 31
  %42 = shl i32 %36, 28
  %43 = ashr i32 %42, 31
  %.neg57 = add nuw nsw i32 %34, %35
  %.neg58 = add nuw nsw i32 %.neg57, %37
  %44 = add nsw i32 %.neg58, %41
  %45 = add nsw i32 %44, %39
  %46 = add nsw i32 %45, %43
  %47 = lshr i32 %46, 15
  %48 = and i32 %47, 3329
  %49 = add nsw i32 %48, %46
  %50 = trunc nsw i32 %49 to i16
  %51 = getelementptr inbounds nuw i8, ptr %.054.ptr, i64 4
  store i16 %50, ptr %32, align 2, !tbaa !36
  %52 = lshr i32 %36, 4
  %53 = and i32 %52, 1
  %54 = lshr i32 %36, 5
  %55 = and i32 %54, 1
  %56 = lshr i32 %36, 6
  %57 = and i32 %56, 1
  %58 = lshr i32 %36, 7
  %59 = zext i8 %13 to i32
  %60 = and i32 %59, 1
  %61 = shl i32 %59, 30
  %62 = ashr i32 %61, 31
  %.neg68 = sub nsw i32 %55, %58
  %.neg70 = add nsw i32 %.neg68, %53
  %63 = add nsw i32 %.neg70, %57
  %64 = sub nsw i32 %63, %60
  %65 = add nsw i32 %64, %62
  %66 = lshr i32 %65, 15
  %67 = and i32 %66, 3329
  %68 = add nsw i32 %67, %65
  %69 = trunc nsw i32 %68 to i16
  %70 = getelementptr inbounds nuw i8, ptr %.054.ptr, i64 6
  store i16 %69, ptr %51, align 2, !tbaa !36
  %71 = lshr i32 %59, 2
  %72 = and i32 %71, 1
  %73 = lshr i32 %59, 3
  %74 = and i32 %73, 1
  %75 = lshr i32 %59, 4
  %76 = and i32 %75, 1
  %77 = shl i32 %59, 26
  %78 = ashr i32 %77, 31
  %79 = shl i32 %59, 25
  %80 = ashr i32 %79, 31
  %81 = lshr i32 %59, 7
  %.neg74 = sub nsw i32 %74, %81
  %.neg75 = add nsw i32 %.neg74, %72
  %82 = add nsw i32 %.neg75, %76
  %83 = add nsw i32 %82, %80
  %84 = add nsw i32 %83, %78
  %isneg63 = icmp slt i32 %84, 0
  %85 = select i1 %isneg63, i32 3329, i32 0
  %86 = add nsw i32 %85, %84
  %87 = trunc nsw i32 %86 to i16
  %.054.add = add nuw nsw i64 %.054.idx, 8
  store i16 %87, ptr %70, align 2, !tbaa !36
  %88 = icmp samesign ult i64 %.054.idx, 504
  br i1 %88, label %.preheader, label %.loopexit, !llvm.loop !77

.loopexit:                                        ; preds = %.preheader, %4
  %.0 = phi i32 [ 0, %4 ], [ 1, %.preheader ]
  call void @llvm.lifetime.end.p0(i64 192, ptr nonnull %5) #13
  ret i32 %.0
}